target datalayout = "e-m:e-p270:32:32-p271:32:32-p272:64:64-i64:64-i128:128-f80:128-n8:16:32:64-S128"
target triple = "x86_64-pc-linux-gnu"

%struct.MMSHContext = type { %struct.MMSContext, [1024 x i8], i32, i32 }
%struct.MMSContext = type { ptr, ptr, ptr, [512 x i8], [65536 x i8], ptr, i32, ptr, i32, i32, i32, i32, i32, i32 }

@.str.22 = private unnamed_addr constant [54 x i8] c"Data packet length %d exceeds the in_buffer size %zu\0A\00", align 1
@.str.23 = private unnamed_addr constant [22 x i8] c"Data packet len = %d\0A\00", align 1
@.str.24 = private unnamed_addr constant [26 x i8] c"Read data packet failed!\0A\00", align 1
@.str.25 = private unnamed_addr constant [41 x i8] c"Chunk length %d exceed packet length %d\0A\00", align 1

; Function Attrs: nounwind uwtable
define internal i32 @read_data_packet(ptr noundef %0, i32 noundef %1) #0 {
  %3 = alloca i32, align 4
  %4 = alloca ptr, align 8
  %5 = alloca i32, align 4
  %6 = alloca ptr, align 8
  %7 = alloca i32, align 4
  %8 = alloca i32, align 4
  store ptr %0, ptr %4, align 8, !tbaa !19
  store i32 %1, ptr %5, align 4, !tbaa !11
  call void @llvm.lifetime.start.p0(i64 8, ptr %6) #5
  %9 = load ptr, ptr %4, align 8, !tbaa !19
  %10 = getelementptr inbounds nuw %struct.MMSHContext, ptr %9, i32 0, i32 0
  store ptr %10, ptr %6, align 8, !tbaa !21
  call void @llvm.lifetime.start.p0(i64 4, ptr %7) #5
  %11 = load i32, ptr %5, align 4, !tbaa !11
  %12 = sext i32 %11 to i64
  %13 = icmp ugt i64 %12, 65536
  br i1 %13, label %14, label %16

14:                                               ; preds = %2
  %15 = load i32, ptr %5, align 4, !tbaa !11
  call void (ptr, i32, ptr, ...) @av_log(ptr noundef null, i32 noundef 16, ptr noundef @.str.22, i32 noundef %15, i64 noundef 65536)
  store i32 -5, ptr %3, align 4
  store i32 1, ptr %8, align 4
  br label %65

16:                                               ; preds = %2
  %17 = load ptr, ptr %6, align 8, !tbaa !21
  %18 = getelementptr inbounds nuw %struct.MMSContext, ptr %17, i32 0, i32 0
  %19 = load ptr, ptr %18, align 8, !tbaa !39
  %20 = load ptr, ptr %6, align 8, !tbaa !21
  %21 = getelementptr inbounds nuw %struct.MMSContext, ptr %20, i32 0, i32 4
  %22 = getelementptr inbounds [65536 x i8], ptr %21, i64 0, i64 0
  %23 = load i32, ptr %5, align 4, !tbaa !11
  %24 = call i32 @ffurl_read_complete(ptr noundef %19, ptr noundef %22, i32 noundef %23)
  store i32 %24, ptr %7, align 4, !tbaa !11
  %25 = load i32, ptr %5, align 4, !tbaa !11
  call void (ptr, i32, ptr, ...) @av_log(ptr noundef null, i32 noundef 56, ptr noundef @.str.23, i32 noundef %25)
  %26 = load i32, ptr %7, align 4, !tbaa !11
  %27 = load i32, ptr %5, align 4, !tbaa !11
  %28 = icmp ne i32 %26, %27
  br i1 %28, label %29, label %30

29:                                               ; preds = %16
  call void (ptr, i32, ptr, ...) @av_log(ptr noundef null, i32 noundef 16, ptr noundef @.str.24)
  store i32 -5, ptr %3, align 4
  store i32 1, ptr %8, align 4
  br label %65

30:                                               ; preds = %16
  %31 = load i32, ptr %5, align 4, !tbaa !11
  %32 = load ptr, ptr %6, align 8, !tbaa !21
  %33 = getelementptr inbounds nuw %struct.MMSContext, ptr %32, i32 0, i32 10
  %34 = load i32, ptr %33, align 8, !tbaa !33
  %35 = icmp sgt i32 %31, %34
  br i1 %35, label %36, label %41

36:                                               ; preds = %30
  %37 = load i32, ptr %5, align 4, !tbaa !11
  %38 = load ptr, ptr %6, align 8, !tbaa !21
  %39 = getelementptr inbounds nuw %struct.MMSContext, ptr %38, i32 0, i32 10
  %40 = load i32, ptr %39, align 8, !tbaa !33
  call void (ptr, i32, ptr, ...) @av_log(ptr noundef null, i32 noundef 16, ptr noundef @.str.25, i32 noundef %37, i32 noundef %40)
  store i32 -1094995529, ptr %3, align 4
  store i32 1, ptr %8, align 4
  br label %65

41:                                               ; preds = %30
  %42 = load ptr, ptr %6, align 8, !tbaa !21
  %43 = getelementptr inbounds nuw %struct.MMSContext, ptr %42, i32 0, i32 4
  %44 = getelementptr inbounds [65536 x i8], ptr %43, i64 0, i64 0
  %45 = load i32, ptr %5, align 4, !tbaa !11
  %46 = sext i32 %45 to i64
  %47 = getelementptr inbounds i8, ptr %44, i64 %46
  %48 = load ptr, ptr %6, align 8, !tbaa !21
  %49 = getelementptr inbounds nuw %struct.MMSContext, ptr %48, i32 0, i32 10
  %50 = load i32, ptr %49, align 8, !tbaa !33
  %51 = load i32, ptr %5, align 4, !tbaa !11
  %52 = sub nsw i32 %50, %51
  %53 = sext i32 %52 to i64
  call void @llvm.memset.p0.i64(ptr align 1 %47, i8 0, i64 %53, i1 false)
  br label %54

54:                                               ; preds = %41
  %55 = load ptr, ptr %6, align 8, !tbaa !21
  %56 = getelementptr inbounds nuw %struct.MMSContext, ptr %55, i32 0, i32 4
  %57 = getelementptr inbounds [65536 x i8], ptr %56, i64 0, i64 0
  %58 = load ptr, ptr %6, align 8, !tbaa !21
  %59 = getelementptr inbounds nuw %struct.MMSContext, ptr %58, i32 0, i32 5
  store ptr %57, ptr %59, align 8, !tbaa !51
  %60 = load ptr, ptr %6, align 8, !tbaa !21
  %61 = getelementptr inbounds nuw %struct.MMSContext, ptr %60, i32 0, i32 10
  %62 = load i32, ptr %61, align 8, !tbaa !33
  %63 = load ptr, ptr %6, align 8, !tbaa !21
  %64 = getelementptr inbounds nuw %struct.MMSContext, ptr %63, i32 0, i32 6
  store i32 %62, ptr %64, align 8, !tbaa !27
  store i32 0, ptr %3, align 4
  store i32 1, ptr %8, align 4
  br label %65

65:                                               ; preds = %54, %36, %29, %14
  call void @llvm.lifetime.end.p0(i64 4, ptr %7) #5
  call void @llvm.lifetime.end.p0(i64 8, ptr %6) #5
  %66 = load i32, ptr %3, align 4
  ret i32 %66
}