; Function Attrs: nounwind uwtable
define internal fastcc range(i32 -1094995529, 1) i32 @read_data_packet(ptr noundef %0, i32 noundef %1) unnamed_addr #0 {
  %3 = sext i32 %1 to i64
  %4 = icmp ugt i32 %1, 65536
  br i1 %4, label %5, label %6

5:                                                ; preds = %2
  tail call void (ptr, i32, ptr, ...) @av_log(ptr noundef null, i32 noundef 16, ptr noundef nonnull @.str.22, i32 noundef %1, i64 noundef 65536) #7
  br label %23

6:                                                ; preds = %2
  %7 = load ptr, ptr %0, align 8, !tbaa !33
  %8 = getelementptr inbounds nuw i8, ptr %0, i64 536
  %9 = tail call i32 @ffurl_read_complete(ptr noundef %7, ptr noundef nonnull %8, i32 noundef %1) #7
  tail call void (ptr, i32, ptr, ...) @av_log(ptr noundef null, i32 noundef 56, ptr noundef nonnull @.str.23, i32 noundef %1) #7
  %.not = icmp eq i32 %9, %1
  br i1 %.not, label %11, label %10

10:                                               ; preds = %6
  tail call void (ptr, i32, ptr, ...) @av_log(ptr noundef null, i32 noundef 16, ptr noundef nonnull @.str.24) #7
  br label %23

11:                                               ; preds = %6
  %12 = getelementptr inbounds nuw i8, ptr %0, i64 66104
  %13 = load i32, ptr %12, align 8, !tbaa !27
  %14 = icmp sgt i32 %1, %13
  br i1 %14, label %15, label %16

15:                                               ; preds = %11
  tail call void (ptr, i32, ptr, ...) @av_log(ptr noundef null, i32 noundef 16, ptr noundef nonnull @.str.25, i32 noundef %1, i32 noundef %13) #7
  br label %23

16:                                               ; preds = %11
  %17 = getelementptr inbounds nuw i8, ptr %8, i64 %3
  %18 = sub nsw i32 %13, %1
  %19 = sext i32 %18 to i64
  tail call void @llvm.memset.p0.i64(ptr nonnull align 1 %17, i8 0, i64 %19, i1 false)
  %20 = getelementptr inbounds nuw i8, ptr %0, i64 66072
  store ptr %8, ptr %20, align 8, !tbaa !42
  %21 = load i32, ptr %12, align 8, !tbaa !27
  %22 = getelementptr inbounds nuw i8, ptr %0, i64 66080
  store i32 %21, ptr %22, align 8, !tbaa !20
  br label %23

23:                                               ; preds = %16, %15, %10, %5
  %.0 = phi i32 [ -5, %5 ], [ -5, %10 ], [ -1094995529, %15 ], [ 0, %16 ]
  ret i32 %.0
}